; Function Attrs: nounwind uwtable
define internal fastcc noundef ptr @build_tlist_index(ptr noundef %0) unnamed_addr #0 {
  %.not.i = icmp eq ptr %0, null
  br i1 %.not.i, label %list_length.exit, label %2

2:                                                ; preds = %1
  %3 = getelementptr inbounds nuw i8, ptr %0, i64 4
  %4 = load i32, ptr %3, align 4
  %5 = sext i32 %4 to i64
  %6 = shl nsw i64 %5, 4
  %7 = add nsw i64 %6, 16
  br label %list_length.exit

list_length.exit:                                 ; preds = %1, %2
  %8 = phi i64 [ %7, %2 ], [ 16, %1 ]
  %9 = tail call ptr @palloc(i64 noundef %8) #8
  store ptr %0, ptr %9, align 8
  %10 = getelementptr inbounds nuw i8, ptr %9, i64 12
  store i8 0, ptr %10, align 4
  %11 = getelementptr inbounds nuw i8, ptr %9, i64 13
  store i8 0, ptr %11, align 1
  %12 = getelementptr inbounds nuw i8, ptr %9, i64 16
  %13 = getelementptr inbounds nuw i8, ptr %0, i64 4
  br i1 %.not.i, label %._crit_edge, label %.lr.ph

.lr.ph:                                           ; preds = %list_length.exit
  %14 = getelementptr inbounds nuw i8, ptr %0, i64 16
  %15 = load i32, ptr %13, align 4
  %16 = icmp sgt i32 %15, 0
  br i1 %16, label %.lr.ph49, label %._crit_edge

._crit_edge:                                      ; preds = %44, %.lr.ph, %list_length.exit
  %.0.lcssa = phi ptr [ %12, %list_length.exit ], [ %12, %.lr.ph ], [ %.1, %44 ]
  %17 = ptrtoint ptr %.0.lcssa to i64
  %18 = ptrtoint ptr %12 to i64
  %19 = sub i64 %17, %18
  %20 = lshr exact i64 %19, 4
  %21 = trunc i64 %20 to i32
  %22 = getelementptr inbounds nuw i8, ptr %9, i64 8
  store i32 %21, ptr %22, align 8
  ret ptr %9

.lr.ph49:                                         ; preds = %.lr.ph, %44
  %indvars.iv = phi i64 [ %indvars.iv.next, %44 ], [ 0, %.lr.ph ]
  %.04347 = phi ptr [ %.1, %44 ], [ %12, %.lr.ph ]
  %23 = load ptr, ptr %14, align 8
  %24 = getelementptr inbounds nuw %union.ListCell, ptr %23, i64 %indvars.iv
  %25 = load ptr, ptr %24, align 8
  %26 = getelementptr inbounds nuw i8, ptr %25, i64 8
  %27 = load ptr, ptr %26, align 8
  %.not37 = icmp eq ptr %27, null
  br i1 %.not37, label %.thread41, label %28

28:                                               ; preds = %.lr.ph49
  %29 = load i32, ptr %27, align 4
  switch i32 %29, label %.thread41 [
    i32 6, label %30
    i32 318, label %43
  ]

30:                                               ; preds = %28
  %31 = getelementptr inbounds nuw i8, ptr %27, i64 4
  %32 = load i32, ptr %31, align 4
  store i32 %32, ptr %.04347, align 8
  %33 = getelementptr inbounds nuw i8, ptr %27, i64 8
  %34 = load i16, ptr %33, align 8
  %35 = getelementptr inbounds nuw i8, ptr %.04347, i64 4
  store i16 %34, ptr %35, align 4
  %36 = getelementptr inbounds nuw i8, ptr %25, i64 16
  %37 = load i16, ptr %36, align 8
  %38 = getelementptr inbounds nuw i8, ptr %.04347, i64 6
  store i16 %37, ptr %38, align 2
  %39 = getelementptr inbounds nuw i8, ptr %27, i64 24
  %40 = load ptr, ptr %39, align 8
  %41 = getelementptr inbounds nuw i8, ptr %.04347, i64 8
  store ptr %40, ptr %41, align 8
  %42 = getelementptr inbounds nuw i8, ptr %.04347, i64 16
  br label %44

43:                                               ; preds = %28
  store i8 1, ptr %10, align 4
  br label %44

.thread41:                                        ; preds = %28, %.lr.ph49
  store i8 1, ptr %11, align 1
  br label %44

44:                                               ; preds = %43, %.thread41, %30
  %.1 = phi ptr [ %42, %30 ], [ %.04347, %43 ], [ %.04347, %.thread41 ]
  %indvars.iv.next = add nuw nsw i64 %indvars.iv, 1
  %45 = load i32, ptr %13, align 4
  %46 = sext i32 %45 to i64
  %47 = icmp slt i64 %indvars.iv.next, %46
  br i1 %47, label %.lr.ph49, label %._crit_edge
}